; Function Attrs: mustprogress uwtable
define hidden noundef nonnull align 8 dereferenceable(8) ptr @_ZN4cvc58internallsERSoRKSt3setINS0_12NodeTemplateILb0EEESt4lessIS4_ESaIS4_EE(ptr noundef nonnull returned align 8 dereferenceable(8) %0, ptr noundef nonnull readonly align 8 captures(address) dereferenceable(48) %1) local_unnamed_addr #3 personality ptr @__gxx_personality_v0 {
  %3 = tail call noundef nonnull align 8 dereferenceable(8) ptr @_ZSt16__ostream_insertIcSt11char_traitsIcEERSt13basic_ostreamIT_T0_ES6_PKS3_l(ptr noundef nonnull align 8 dereferenceable(8) %0, ptr noundef nonnull @.str.101, i64 noundef 1)
  %4 = getelementptr inbounds nuw i8, ptr %1, i64 24
  %5 = load ptr, ptr %4, align 8, !tbaa !43
  %6 = getelementptr inbounds nuw i8, ptr %1, i64 8
  %.not16 = icmp eq ptr %5, %6
  br i1 %.not16, label %._crit_edge, label %_ZN4cvc58internallsERSoNS0_12NodeTemplateILb0EEE.exit.preheader

_ZN4cvc58internallsERSoNS0_12NodeTemplateILb0EEE.exit.preheader: ; preds = %2
  %7 = getelementptr inbounds nuw i8, ptr %5, i64 32
  %8 = load ptr, ptr %7, align 8, !tbaa !27
  tail call void @_ZNK4cvc58internal4expr9NodeValue8toStreamERSo(ptr noundef nonnull align 8 dereferenceable(24) %8, ptr noundef nonnull align 8 dereferenceable(8) %0)
  %9 = tail call noundef ptr @_ZSt18_Rb_tree_incrementPKSt18_Rb_tree_node_base(ptr noundef nonnull %5) #30
  %.not1518 = icmp eq ptr %9, %6
  br i1 %.not1518, label %._crit_edge, label %_ZN4cvc58internallsERSoNS0_12NodeTemplateILb0EEE.exit

_ZN4cvc58internallsERSoNS0_12NodeTemplateILb0EEE.exit: ; preds = %_ZN4cvc58internallsERSoNS0_12NodeTemplateILb0EEE.exit.preheader, %_ZN4cvc58internallsERSoNS0_12NodeTemplateILb0EEE.exit
  %10 = phi ptr [ %14, %_ZN4cvc58internallsERSoNS0_12NodeTemplateILb0EEE.exit ], [ %9, %_ZN4cvc58internallsERSoNS0_12NodeTemplateILb0EEE.exit.preheader ]
  %11 = tail call noundef nonnull align 8 dereferenceable(8) ptr @_ZSt16__ostream_insertIcSt11char_traitsIcEERSt13basic_ostreamIT_T0_ES6_PKS3_l(ptr noundef nonnull align 8 dereferenceable(8) %0, ptr noundef nonnull @.str.102, i64 noundef 1)
  %12 = getelementptr inbounds nuw i8, ptr %10, i64 32
  %13 = load ptr, ptr %12, align 8, !tbaa !27
  tail call void @_ZNK4cvc58internal4expr9NodeValue8toStreamERSo(ptr noundef nonnull align 8 dereferenceable(24) %13, ptr noundef nonnull align 8 dereferenceable(8) %0)
  %14 = tail call noundef ptr @_ZSt18_Rb_tree_incrementPKSt18_Rb_tree_node_base(ptr noundef nonnull %10) #30
  %.not15 = icmp eq ptr %14, %6
  br i1 %.not15, label %._crit_edge, label %_ZN4cvc58internallsERSoNS0_12NodeTemplateILb0EEE.exit

._crit_edge:                                      ; preds = %_ZN4cvc58internallsERSoNS0_12NodeTemplateILb0EEE.exit, %_ZN4cvc58internallsERSoNS0_12NodeTemplateILb0EEE.exit.preheader, %2
  %15 = tail call noundef nonnull align 8 dereferenceable(8) ptr @_ZSt16__ostream_insertIcSt11char_traitsIcEERSt13basic_ostreamIT_T0_ES6_PKS3_l(ptr noundef nonnull align 8 dereferenceable(8) %0, ptr noundef nonnull @.str.103, i64 noundef 1)
  ret ptr %0
}